; Function Attrs: mustprogress nofree norecurse nosync nounwind willreturn memory(write, argmem: readwrite, inaccessiblemem: none) uwtable
define internal fastcc void @_ZL23stbtt__csctx_rccurve_toP12stbtt__csctxffffff(ptr noundef nonnull captures(none) %0, float noundef %1, float noundef %2, float noundef %3, float noundef %4, float noundef %5, float noundef %6) unnamed_addr #14 {
  %8 = getelementptr inbounds nuw i8, ptr %0, i64 16
  %9 = load float, ptr %8, align 8, !tbaa !575
  %10 = fadd float %1, %9
  %11 = getelementptr inbounds nuw i8, ptr %0, i64 20
  %12 = load float, ptr %11, align 4, !tbaa !577
  %13 = fadd float %2, %12
  %14 = fadd float %3, %10
  %15 = fadd float %4, %13
  %16 = fadd float %5, %14
  store float %16, ptr %8, align 8, !tbaa !575
  %17 = fadd float %6, %15
  store float %17, ptr %11, align 4, !tbaa !577
  %18 = fptosi float %16 to i32
  %19 = fptosi float %17 to i32
  %20 = fptosi float %10 to i32
  %21 = fptosi float %13 to i32
  %22 = fptosi float %14 to i32
  %23 = fptosi float %15 to i32
  %24 = load i32, ptr %0, align 8, !tbaa !578
  %.not.i = icmp eq i32 %24, 0
  br i1 %.not.i, label %88, label %25

25:                                               ; preds = %7
  %26 = getelementptr inbounds nuw i8, ptr %0, i64 28
  %27 = load i32, ptr %26, align 4, !tbaa !579
  %28 = icmp slt i32 %27, %18
  br i1 %28, label %32, label %29

29:                                               ; preds = %25
  %30 = getelementptr inbounds nuw i8, ptr %0, i64 4
  %31 = load i32, ptr %30, align 4, !tbaa !580
  %.not.i.i = icmp eq i32 %31, 0
  br i1 %.not.i.i, label %32, label %33

32:                                               ; preds = %29, %25
  store i32 %18, ptr %26, align 4, !tbaa !579
  br label %33

33:                                               ; preds = %32, %29
  %34 = phi i32 [ %18, %32 ], [ %27, %29 ]
  %35 = getelementptr inbounds nuw i8, ptr %0, i64 36
  %36 = load i32, ptr %35, align 4, !tbaa !581
  %37 = icmp slt i32 %36, %19
  br i1 %37, label %41, label %38

38:                                               ; preds = %33
  %39 = getelementptr inbounds nuw i8, ptr %0, i64 4
  %40 = load i32, ptr %39, align 4, !tbaa !580
  %.not20.i.i = icmp eq i32 %40, 0
  br i1 %.not20.i.i, label %41, label %42

41:                                               ; preds = %38, %33
  store i32 %19, ptr %35, align 4, !tbaa !581
  br label %42

42:                                               ; preds = %41, %38
  %43 = phi i32 [ %19, %41 ], [ %36, %38 ]
  %44 = getelementptr inbounds nuw i8, ptr %0, i64 24
  %45 = load i32, ptr %44, align 8, !tbaa !582
  %46 = icmp sgt i32 %45, %18
  br i1 %46, label %50, label %47

47:                                               ; preds = %42
  %48 = getelementptr inbounds nuw i8, ptr %0, i64 4
  %49 = load i32, ptr %48, align 4, !tbaa !580
  %.not21.i.i = icmp eq i32 %49, 0
  br i1 %.not21.i.i, label %50, label %51

50:                                               ; preds = %47, %42
  store i32 %18, ptr %44, align 8, !tbaa !582
  br label %51

51:                                               ; preds = %50, %47
  %52 = phi i32 [ %18, %50 ], [ %45, %47 ]
  %53 = getelementptr inbounds nuw i8, ptr %0, i64 32
  %54 = load i32, ptr %53, align 8, !tbaa !583
  %55 = icmp sgt i32 %54, %19
  br i1 %55, label %59, label %56

56:                                               ; preds = %51
  %57 = getelementptr inbounds nuw i8, ptr %0, i64 4
  %58 = load i32, ptr %57, align 4, !tbaa !580
  %.not22.i.i = icmp eq i32 %58, 0
  br i1 %.not22.i.i, label %59, label %_ZL19stbtt__track_vertexP12stbtt__csctxii.exit.i

59:                                               ; preds = %56, %51
  store i32 %19, ptr %53, align 8, !tbaa !583
  br label %_ZL19stbtt__track_vertexP12stbtt__csctxii.exit.i

_ZL19stbtt__track_vertexP12stbtt__csctxii.exit.i: ; preds = %59, %56
  %60 = phi i32 [ %54, %56 ], [ %19, %59 ]
  %61 = getelementptr inbounds nuw i8, ptr %0, i64 4
  store i32 1, ptr %61, align 4, !tbaa !580
  %62 = icmp slt i32 %34, %20
  br i1 %62, label %63, label %64

63:                                               ; preds = %_ZL19stbtt__track_vertexP12stbtt__csctxii.exit.i
  store i32 %20, ptr %26, align 4, !tbaa !579
  br label %64

64:                                               ; preds = %63, %_ZL19stbtt__track_vertexP12stbtt__csctxii.exit.i
  %65 = phi i32 [ %34, %_ZL19stbtt__track_vertexP12stbtt__csctxii.exit.i ], [ %20, %63 ]
  %66 = icmp slt i32 %43, %21
  br i1 %66, label %67, label %68

67:                                               ; preds = %64
  store i32 %21, ptr %35, align 4, !tbaa !581
  br label %68

68:                                               ; preds = %67, %64
  %69 = phi i32 [ %43, %64 ], [ %21, %67 ]
  %70 = icmp sgt i32 %52, %20
  br i1 %70, label %71, label %72

71:                                               ; preds = %68
  store i32 %20, ptr %44, align 8, !tbaa !582
  br label %72

72:                                               ; preds = %71, %68
  %73 = phi i32 [ %52, %68 ], [ %20, %71 ]
  %74 = icmp sgt i32 %60, %21
  br i1 %74, label %75, label %_ZL19stbtt__track_vertexP12stbtt__csctxii.exit28.i

75:                                               ; preds = %72
  store i32 %21, ptr %53, align 8, !tbaa !583
  br label %_ZL19stbtt__track_vertexP12stbtt__csctxii.exit28.i

_ZL19stbtt__track_vertexP12stbtt__csctxii.exit28.i: ; preds = %75, %72
  %76 = phi i32 [ %60, %72 ], [ %21, %75 ]
  %77 = icmp slt i32 %65, %22
  br i1 %77, label %78, label %79

78:                                               ; preds = %_ZL19stbtt__track_vertexP12stbtt__csctxii.exit28.i
  store i32 %22, ptr %26, align 4, !tbaa !579
  br label %79

79:                                               ; preds = %78, %_ZL19stbtt__track_vertexP12stbtt__csctxii.exit28.i
  %80 = icmp slt i32 %69, %23
  br i1 %80, label %81, label %82

81:                                               ; preds = %79
  store i32 %23, ptr %35, align 4, !tbaa !581
  br label %82

82:                                               ; preds = %81, %79
  %83 = icmp sgt i32 %73, %22
  br i1 %83, label %84, label %85

84:                                               ; preds = %82
  store i32 %22, ptr %44, align 8, !tbaa !582
  br label %85

85:                                               ; preds = %84, %82
  %86 = icmp sgt i32 %76, %23
  br i1 %86, label %87, label %_ZL19stbtt__track_vertexP12stbtt__csctxii.exit33.i

87:                                               ; preds = %85
  store i32 %23, ptr %53, align 8, !tbaa !583
  br label %_ZL19stbtt__track_vertexP12stbtt__csctxii.exit33.i

_ZL19stbtt__track_vertexP12stbtt__csctxii.exit33.i: ; preds = %87, %85
  store i32 1, ptr %61, align 4, !tbaa !580
  %.phi.trans.insert = getelementptr inbounds nuw i8, ptr %0, i64 48
  %.pre = load i32, ptr %.phi.trans.insert, align 8, !tbaa !584
  br label %_ZL14stbtt__csctx_vP12stbtt__csctxhiiiiii.exit

88:                                               ; preds = %7
  %89 = getelementptr inbounds nuw i8, ptr %0, i64 40
  %90 = load ptr, ptr %89, align 8, !tbaa !585
  %91 = getelementptr inbounds nuw i8, ptr %0, i64 48
  %92 = load i32, ptr %91, align 8, !tbaa !584
  %93 = sext i32 %92 to i64
  %94 = getelementptr inbounds %struct.stbtt_vertex, ptr %90, i64 %93
  %95 = getelementptr inbounds nuw i8, ptr %94, i64 12
  store i8 4, ptr %95, align 2, !tbaa !422
  %96 = trunc i32 %18 to i16
  store i16 %96, ptr %94, align 2, !tbaa !429
  %97 = trunc i32 %19 to i16
  %98 = getelementptr inbounds nuw i8, ptr %94, i64 2
  store i16 %97, ptr %98, align 2, !tbaa !430
  %99 = trunc i32 %20 to i16
  %100 = getelementptr inbounds nuw i8, ptr %94, i64 4
  store i16 %99, ptr %100, align 2, !tbaa !425
  %101 = trunc i32 %21 to i16
  %102 = getelementptr inbounds nuw i8, ptr %94, i64 6
  store i16 %101, ptr %102, align 2, !tbaa !426
  %103 = trunc i32 %22 to i16
  %104 = getelementptr inbounds %struct.stbtt_vertex, ptr %90, i64 %93, i32 4
  store i16 %103, ptr %104, align 2, !tbaa !427
  %105 = trunc i32 %23 to i16
  %106 = getelementptr inbounds %struct.stbtt_vertex, ptr %90, i64 %93, i32 5
  store i16 %105, ptr %106, align 2, !tbaa !428
  br label %_ZL14stbtt__csctx_vP12stbtt__csctxhiiiiii.exit

_ZL14stbtt__csctx_vP12stbtt__csctxhiiiiii.exit:   ; preds = %_ZL19stbtt__track_vertexP12stbtt__csctxii.exit33.i, %88
  %107 = phi i32 [ %.pre, %_ZL19stbtt__track_vertexP12stbtt__csctxii.exit33.i ], [ %92, %88 ]
  %108 = getelementptr inbounds nuw i8, ptr %0, i64 48
  %109 = add nsw i32 %107, 1
  store i32 %109, ptr %108, align 8, !tbaa !584
  ret void
}